; Function Attrs: mustprogress nofree nounwind willreturn memory(argmem: readwrite) uwtable
define noundef range(i32 0, 8) i32 @_ZN6icu_7714StandardPlural15indexFromStringEPKcR10UErrorCode(ptr noundef readonly captures(none) %0, ptr noundef nonnull align 4 captures(none) dereferenceable(4) %1) local_unnamed_addr #4 align 2 {
  %3 = load i32, ptr %1, align 4, !tbaa !12
  %4 = icmp slt i32 %3, 1
  br i1 %4, label %5, label %9

5:                                                ; preds = %2
  %6 = tail call noundef i32 @_ZN6icu_7714StandardPlural25indexOrNegativeFromStringEPKc(ptr noundef %0)
  %7 = icmp sgt i32 %6, -1
  br i1 %7, label %9, label %8

8:                                                ; preds = %5
  store i32 1, ptr %1, align 4, !tbaa !12
  br label %9

9:                                                ; preds = %8, %5, %2
  %.0 = phi i32 [ 5, %2 ], [ 5, %8 ], [ %6, %5 ]
  ret i32 %.0
}